target datalayout = "e-m:e-p270:32:32-p271:32:32-p272:64:64-i64:64-i128:128-f80:128-n8:16:32:64-S128"
target triple = "x86_64-pc-linux-gnu"

%class.Register = type { i32 }
%class.Label = type <{ i32, [4 x i32], i32, ptr, i8, [7 x i8] }>

@.str = private unnamed_addr constant [42 x i8] c"src/hotspot/cpu/x86/templateTable_x86.cpp\00", align 1
@_ZN13TemplateTable5_masmE = external global ptr, align 8
@_ZL3rax = internal constant %class.Register zeroinitializer, align 4
@_ZL3rbx = internal constant %class.Register { i32 3 }, align 4
@_ZL3rcx = internal constant %class.Register { i32 1 }, align 4
@_ZL3rdx = internal constant %class.Register { i32 2 }, align 4
@PrintInterpreter = external global i8, align 1

; Function Attrs: mustprogress nounwind uwtable
define linkonce_odr hidden void @_ZN5Label4initEv(ptr noundef nonnull align 8 dereferenceable(33) %0) #1 comdat align 2 {
  %2 = alloca ptr, align 8
  store ptr %0, ptr %2, align 8
  %3 = load ptr, ptr %2, align 8
  %4 = getelementptr inbounds %class.Label, ptr %3, i32 0, i32 0
  store i32 -1, ptr %4, align 8
  %5 = getelementptr inbounds %class.Label, ptr %3, i32 0, i32 2
  store i32 0, ptr %5, align 4
  %6 = getelementptr inbounds %class.Label, ptr %3, i32 0, i32 3
  store ptr null, ptr %6, align 8
  %7 = getelementptr inbounds %class.Label, ptr %3, i32 0, i32 4
  store i8 0, ptr %7, align 8
  ret void
}

; Function Attrs: mustprogress nounwind uwtable
define linkonce_odr hidden void @_ZN5LabelD2Ev(ptr noundef nonnull align 8 dereferenceable(33) %0) unnamed_addr #1 comdat align 2 {
  %2 = alloca ptr, align 8
  store ptr %0, ptr %2, align 8
  ret void
}

; Function Attrs: mustprogress nounwind uwtable
define hidden void @_ZN13TemplateTable16volatile_barrierEN9Assembler16Membar_mask_bitsE(i32 noundef %0) #1 align 2 {
  %2 = alloca i32, align 4
  store i32 %0, ptr %2, align 4
  %3 = load ptr, ptr @_ZN13TemplateTable5_masmE, align 8
  %4 = call noundef ptr @_ZN12Disassembler4hookI25InterpreterMacroAssemblerEEPT_PKciS3_(ptr noundef @.str, i32 noundef 2654, ptr noundef %3)
  %5 = load i32, ptr %2, align 4
  call void @_ZN9Assembler6membarENS_16Membar_mask_bitsE(ptr noundef nonnull align 8 dereferenceable(40) %4, i32 noundef %5)
  ret void
}

; Function Attrs: mustprogress nounwind uwtable
define linkonce_odr hidden noundef ptr @_ZN12Disassembler4hookI25InterpreterMacroAssemblerEEPT_PKciS3_(ptr noundef %0, i32 noundef %1, ptr noundef %2) #1 comdat align 2 {
  %4 = alloca ptr, align 8
  %5 = alloca i32, align 4
  %6 = alloca ptr, align 8
  store ptr %0, ptr %4, align 8
  store i32 %1, ptr %5, align 4
  store ptr %2, ptr %6, align 8
  %7 = load i8, ptr @PrintInterpreter, align 1
  %8 = trunc i8 %7 to i1
  br i1 %8, label %9, label %13

9:                                                ; preds = %3
  %10 = load ptr, ptr %4, align 8
  %11 = load i32, ptr %5, align 4
  %12 = load ptr, ptr %6, align 8
  call void @_ZN12Disassembler5_hookEPKciP14MacroAssembler(ptr noundef %10, i32 noundef %11, ptr noundef %12)
  br label %13

13:                                               ; preds = %9, %3
  %14 = load ptr, ptr %6, align 8
  ret ptr %14
}

; Function Attrs: mustprogress nounwind uwtable
define linkonce_odr hidden void @_ZN5LabelC2Ev(ptr noundef nonnull align 8 dereferenceable(33) %0) unnamed_addr #1 comdat align 2 {
  %2 = alloca ptr, align 8
  store ptr %0, ptr %2, align 8
  %3 = load ptr, ptr %2, align 8
  call void @_ZN5Label4initEv(ptr noundef nonnull align 8 dereferenceable(33) %3)
  ret void
}

; Function Attrs: mustprogress nounwind uwtable
define hidden void @_ZN13TemplateTable18putfield_or_staticEibNS_14RewriteControlE(i32 noundef %0, i1 noundef zeroext %1, i32 noundef %2) #1 align 2 {
  %4 = alloca i32, align 4
  %5 = alloca i8, align 1
  %6 = alloca i32, align 4
  %7 = alloca %class.Register, align 4
  %8 = alloca %class.Register, align 4
  %9 = alloca %class.Register, align 4
  %10 = alloca %class.Register, align 4
  %11 = alloca %class.Register, align 4
  %12 = alloca %class.Register, align 4
  %13 = alloca %class.Register, align 4
  %14 = alloca %class.Register, align 4
  %15 = alloca %class.Register, align 4
  %16 = alloca %class.Register, align 4
  %17 = alloca %class.Register, align 4
  %18 = alloca %class.Register, align 4
  %19 = alloca %class.Register, align 4
  %20 = alloca %class.Register, align 4
  %21 = alloca %class.Register, align 4
  %22 = alloca %class.Label, align 8
  %23 = alloca %class.Label, align 8
  %24 = alloca %class.Register, align 4
  %25 = alloca %class.Register, align 4
  %26 = alloca %class.Register, align 4
  %27 = alloca %class.Register, align 4
  %28 = alloca %class.Register, align 4
  %29 = alloca %class.Register, align 4
  %30 = alloca %class.Register, align 4
  %31 = alloca %class.Register, align 4
  %32 = alloca %class.Register, align 4
  store i32 %0, ptr %4, align 4
  %33 = zext i1 %1 to i8
  store i8 %33, ptr %5, align 1
  store i32 %2, ptr %6, align 4
  call void @_ZN13TemplateTable10transitionE8TosStateS0_(i32 noundef 9, i32 noundef 9)
  call void @llvm.memcpy.p0.p0.i64(ptr align 4 %7, ptr align 4 @_ZL3rcx, i64 4, i1 false)
  call void @llvm.memcpy.p0.p0.i64(ptr align 4 %8, ptr align 4 @_ZL3rcx, i64 4, i1 false)
  call void @llvm.memcpy.p0.p0.i64(ptr align 4 %9, ptr align 4 @_ZL3rdx, i64 4, i1 false)
  call void @llvm.memcpy.p0.p0.i64(ptr align 4 %10, ptr align 4 @_ZL3rdx, i64 4, i1 false)
  call void @llvm.memcpy.p0.p0.i64(ptr align 4 %11, ptr align 4 @_ZL3rbx, i64 4, i1 false)
  call void @llvm.memcpy.p0.p0.i64(ptr align 4 %12, ptr align 4 @_ZL3rax, i64 4, i1 false)
  %34 = load i32, ptr %4, align 4
  call void @llvm.memcpy.p0.p0.i64(ptr align 4 %13, ptr align 4 %8, i64 4, i1 false)
  call void @llvm.memcpy.p0.p0.i64(ptr align 4 %14, ptr align 4 %9, i64 4, i1 false)
  %35 = getelementptr inbounds %class.Register, ptr %13, i32 0, i32 0
  %36 = load i32, ptr %35, align 4
  %37 = getelementptr inbounds %class.Register, ptr %14, i32 0, i32 0
  %38 = load i32, ptr %37, align 4
  call void @_ZN13TemplateTable33resolve_cache_and_index_for_fieldEi8RegisterS0_(i32 noundef %34, i32 %36, i32 %38)
  call void @llvm.memcpy.p0.p0.i64(ptr align 4 %15, ptr align 4 %8, i64 4, i1 false)
  call void @llvm.memcpy.p0.p0.i64(ptr align 4 %16, ptr align 4 %9, i64 4, i1 false)
  %39 = load i8, ptr %5, align 1
  %40 = trunc i8 %39 to i1
  %41 = getelementptr inbounds %class.Register, ptr %15, i32 0, i32 0
  %42 = load i32, ptr %41, align 4
  %43 = getelementptr inbounds %class.Register, ptr %16, i32 0, i32 0
  %44 = load i32, ptr %43, align 4
  call void @_ZN13TemplateTable20jvmti_post_field_modE8RegisterS0_b(i32 %42, i32 %44, i1 noundef zeroext %40)
  call void @llvm.memcpy.p0.p0.i64(ptr align 4 %17, ptr align 4 %7, i64 4, i1 false)
  call void @llvm.memcpy.p0.p0.i64(ptr align 4 %18, ptr align 4 %8, i64 4, i1 false)
  call void @llvm.memcpy.p0.p0.i64(ptr align 4 %19, ptr align 4 %10, i64 4, i1 false)
  call void @llvm.memcpy.p0.p0.i64(ptr align 4 %20, ptr align 4 %11, i64 4, i1 false)
  call void @llvm.memcpy.p0.p0.i64(ptr align 4 %21, ptr align 4 %12, i64 4, i1 false)
  %45 = load i8, ptr %5, align 1
  %46 = trunc i8 %45 to i1
  %47 = getelementptr inbounds %class.Register, ptr %17, i32 0, i32 0
  %48 = load i32, ptr %47, align 4
  %49 = getelementptr inbounds %class.Register, ptr %18, i32 0, i32 0
  %50 = load i32, ptr %49, align 4
  %51 = getelementptr inbounds %class.Register, ptr %19, i32 0, i32 0
  %52 = load i32, ptr %51, align 4
  %53 = getelementptr inbounds %class.Register, ptr %20, i32 0, i32 0
  %54 = load i32, ptr %53, align 4
  %55 = getelementptr inbounds %class.Register, ptr %21, i32 0, i32 0
  %56 = load i32, ptr %55, align 4
  call void @_ZN13TemplateTable25load_resolved_field_entryE8RegisterS0_S0_S0_S0_b(i32 %48, i32 %50, i32 %52, i32 %54, i32 %56, i1 noundef zeroext %46)
  call void @_ZN5LabelC2Ev(ptr noundef nonnull align 8 dereferenceable(33) %22)
  call void @_ZN5LabelC2Ev(ptr noundef nonnull align 8 dereferenceable(33) %23)
  %57 = load ptr, ptr @_ZN13TemplateTable5_masmE, align 8
  %58 = call noundef ptr @_ZN12Disassembler4hookI25InterpreterMacroAssemblerEEPT_PKciS3_(ptr noundef @.str, i32 noundef 3236, ptr noundef %57)
  call void @llvm.memcpy.p0.p0.i64(ptr align 4 %24, ptr align 4 %12, i64 4, i1 false)
  %59 = getelementptr inbounds %class.Register, ptr %24, i32 0, i32 0
  %60 = load i32, ptr %59, align 4
  call void @_ZN9Assembler4andlE8Registeri(ptr noundef nonnull align 8 dereferenceable(40) %58, i32 %60, i32 noundef 1)
  %61 = load ptr, ptr @_ZN13TemplateTable5_masmE, align 8
  %62 = call noundef ptr @_ZN12Disassembler4hookI25InterpreterMacroAssemblerEEPT_PKciS3_(ptr noundef @.str, i32 noundef 3237, ptr noundef %61)
  call void @llvm.memcpy.p0.p0.i64(ptr align 4 %25, ptr align 4 %12, i64 4, i1 false)
  call void @llvm.memcpy.p0.p0.i64(ptr align 4 %26, ptr align 4 %12, i64 4, i1 false)
  %63 = getelementptr inbounds %class.Register, ptr %25, i32 0, i32 0
  %64 = load i32, ptr %63, align 4
  %65 = getelementptr inbounds %class.Register, ptr %26, i32 0, i32 0
  %66 = load i32, ptr %65, align 4
  call void @_ZN9Assembler5testlE8RegisterS0_(ptr noundef nonnull align 8 dereferenceable(40) %62, i32 %64, i32 %66)
  %67 = load ptr, ptr @_ZN13TemplateTable5_masmE, align 8
  %68 = call noundef ptr @_ZN12Disassembler4hookI25InterpreterMacroAssemblerEEPT_PKciS3_(ptr noundef @.str, i32 noundef 3238, ptr noundef %67)
  call void @_ZN9Assembler3jccENS_9ConditionER5Labelb(ptr noundef nonnull align 8 dereferenceable(40) %68, i32 noundef 4, ptr noundef nonnull align 8 dereferenceable(33) %22, i1 noundef zeroext true)
  %69 = load i32, ptr %4, align 4
  %70 = load i8, ptr %5, align 1
  %71 = trunc i8 %70 to i1
  %72 = load i32, ptr %6, align 4
  call void @llvm.memcpy.p0.p0.i64(ptr align 4 %27, ptr align 4 %7, i64 4, i1 false)
  call void @llvm.memcpy.p0.p0.i64(ptr align 4 %28, ptr align 4 %11, i64 4, i1 false)
  call void @llvm.memcpy.p0.p0.i64(ptr align 4 %29, ptr align 4 %10, i64 4, i1 false)
  %73 = getelementptr inbounds %class.Register, ptr %27, i32 0, i32 0
  %74 = load i32, ptr %73, align 4
  %75 = getelementptr inbounds %class.Register, ptr %28, i32 0, i32 0
  %76 = load i32, ptr %75, align 4
  %77 = getelementptr inbounds %class.Register, ptr %29, i32 0, i32 0
  %78 = load i32, ptr %77, align 4
  call void @_ZN13TemplateTable25putfield_or_static_helperEibNS_14RewriteControlE8RegisterS1_S1_(i32 noundef %69, i1 noundef zeroext %71, i32 noundef %72, i32 %74, i32 %76, i32 %78)
  call void @_ZN13TemplateTable16volatile_barrierEN9Assembler16Membar_mask_bitsE(i32 noundef 10)
  %79 = load ptr, ptr @_ZN13TemplateTable5_masmE, align 8
  %80 = call noundef ptr @_ZN12Disassembler4hookI25InterpreterMacroAssemblerEEPT_PKciS3_(ptr noundef @.str, i32 noundef 3243, ptr noundef %79)
  call void @_ZN9Assembler3jmpER5Labelb(ptr noundef nonnull align 8 dereferenceable(40) %80, ptr noundef nonnull align 8 dereferenceable(33) %23, i1 noundef zeroext true)
  %81 = load ptr, ptr @_ZN13TemplateTable5_masmE, align 8
  %82 = call noundef ptr @_ZN12Disassembler4hookI25InterpreterMacroAssemblerEEPT_PKciS3_(ptr noundef @.str, i32 noundef 3244, ptr noundef %81)
  call void @_ZN17AbstractAssembler4bindER5Label(ptr noundef nonnull align 8 dereferenceable(24) %82, ptr noundef nonnull align 8 dereferenceable(33) %22)
  %83 = load i32, ptr %4, align 4
  %84 = load i8, ptr %5, align 1
  %85 = trunc i8 %84 to i1
  %86 = load i32, ptr %6, align 4
  call void @llvm.memcpy.p0.p0.i64(ptr align 4 %30, ptr align 4 %7, i64 4, i1 false)
  call void @llvm.memcpy.p0.p0.i64(ptr align 4 %31, ptr align 4 %11, i64 4, i1 false)
  call void @llvm.memcpy.p0.p0.i64(ptr align 4 %32, ptr align 4 %10, i64 4, i1 false)
  %87 = getelementptr inbounds %class.Register, ptr %30, i32 0, i32 0
  %88 = load i32, ptr %87, align 4
  %89 = getelementptr inbounds %class.Register, ptr %31, i32 0, i32 0
  %90 = load i32, ptr %89, align 4
  %91 = getelementptr inbounds %class.Register, ptr %32, i32 0, i32 0
  %92 = load i32, ptr %91, align 4
  call void @_ZN13TemplateTable25putfield_or_static_helperEibNS_14RewriteControlE8RegisterS1_S1_(i32 noundef %83, i1 noundef zeroext %85, i32 noundef %86, i32 %88, i32 %90, i32 %92)
  %93 = load ptr, ptr @_ZN13TemplateTable5_masmE, align 8
  %94 = call noundef ptr @_ZN12Disassembler4hookI25InterpreterMacroAssemblerEEPT_PKciS3_(ptr noundef @.str, i32 noundef 3248, ptr noundef %93)
  call void @_ZN17AbstractAssembler4bindER5Label(ptr noundef nonnull align 8 dereferenceable(24) %94, ptr noundef nonnull align 8 dereferenceable(33) %23)
  call void @_ZN5LabelD2Ev(ptr noundef nonnull align 8 dereferenceable(33) %23) #5
  call void @_ZN5LabelD2Ev(ptr noundef nonnull align 8 dereferenceable(33) %22) #5
  ret void
}