; Function Attrs: mustprogress nounwind uwtable
define hidden void @_ZN13TemplateTable18putfield_or_staticEibNS_14RewriteControlE(i32 noundef %0, i1 noundef zeroext %1, i32 noundef %2) local_unnamed_addr #0 align 2 {
  %4 = alloca %class.Label, align 8
  %5 = alloca %class.Label, align 8
  tail call void @_ZN13TemplateTable10transitionE8TosStateS0_(i32 noundef 9, i32 noundef 9) #8
  tail call void @_ZN13TemplateTable33resolve_cache_and_index_for_fieldEi8RegisterS0_(i32 noundef %0, i32 1, i32 2)
  tail call void @_ZN13TemplateTable20jvmti_post_field_modE8RegisterS0_b(i32 1, i32 2, i1 noundef zeroext %1)
  tail call void @_ZN13TemplateTable25load_resolved_field_entryE8RegisterS0_S0_S0_S0_b(i32 1, i32 1, i32 2, i32 3, i32 0, i1 noundef zeroext %1)
  store i32 -1, ptr %4, align 8
  %6 = getelementptr inbounds i8, ptr %4, i64 20
  store i32 0, ptr %6, align 4
  %7 = getelementptr inbounds i8, ptr %4, i64 24
  store ptr null, ptr %7, align 8
  %8 = getelementptr inbounds i8, ptr %4, i64 32
  store i8 0, ptr %8, align 8
  store i32 -1, ptr %5, align 8
  %9 = getelementptr inbounds i8, ptr %5, i64 20
  store i32 0, ptr %9, align 4
  %10 = getelementptr inbounds i8, ptr %5, i64 24
  store ptr null, ptr %10, align 8
  %11 = getelementptr inbounds i8, ptr %5, i64 32
  store i8 0, ptr %11, align 8
  %12 = load ptr, ptr @_ZN13TemplateTable5_masmE, align 8
  %13 = load i8, ptr @PrintInterpreter, align 1
  %14 = trunc i8 %13 to i1
  br i1 %14, label %15, label %_ZN12Disassembler4hookI25InterpreterMacroAssemblerEEPT_PKciS3_.exit

15:                                               ; preds = %3
  tail call void @_ZN12Disassembler5_hookEPKciP14MacroAssembler(ptr noundef nonnull @.str, i32 noundef 3236, ptr noundef %12) #8
  br label %_ZN12Disassembler4hookI25InterpreterMacroAssemblerEEPT_PKciS3_.exit

_ZN12Disassembler4hookI25InterpreterMacroAssemblerEEPT_PKciS3_.exit: ; preds = %3, %15
  tail call void @_ZN9Assembler4andlE8Registeri(ptr noundef nonnull align 8 dereferenceable(40) %12, i32 0, i32 noundef 1) #8
  %16 = load ptr, ptr @_ZN13TemplateTable5_masmE, align 8
  %17 = load i8, ptr @PrintInterpreter, align 1
  %18 = trunc i8 %17 to i1
  br i1 %18, label %19, label %_ZN12Disassembler4hookI25InterpreterMacroAssemblerEEPT_PKciS3_.exit44

19:                                               ; preds = %_ZN12Disassembler4hookI25InterpreterMacroAssemblerEEPT_PKciS3_.exit
  tail call void @_ZN12Disassembler5_hookEPKciP14MacroAssembler(ptr noundef nonnull @.str, i32 noundef 3237, ptr noundef %16) #8
  br label %_ZN12Disassembler4hookI25InterpreterMacroAssemblerEEPT_PKciS3_.exit44

_ZN12Disassembler4hookI25InterpreterMacroAssemblerEEPT_PKciS3_.exit44: ; preds = %_ZN12Disassembler4hookI25InterpreterMacroAssemblerEEPT_PKciS3_.exit, %19
  tail call void @_ZN9Assembler5testlE8RegisterS0_(ptr noundef nonnull align 8 dereferenceable(40) %16, i32 0, i32 0) #8
  %20 = load ptr, ptr @_ZN13TemplateTable5_masmE, align 8
  %21 = load i8, ptr @PrintInterpreter, align 1
  %22 = trunc i8 %21 to i1
  br i1 %22, label %23, label %_ZN12Disassembler4hookI25InterpreterMacroAssemblerEEPT_PKciS3_.exit45

23:                                               ; preds = %_ZN12Disassembler4hookI25InterpreterMacroAssemblerEEPT_PKciS3_.exit44
  tail call void @_ZN12Disassembler5_hookEPKciP14MacroAssembler(ptr noundef nonnull @.str, i32 noundef 3238, ptr noundef %20) #8
  br label %_ZN12Disassembler4hookI25InterpreterMacroAssemblerEEPT_PKciS3_.exit45

_ZN12Disassembler4hookI25InterpreterMacroAssemblerEEPT_PKciS3_.exit45: ; preds = %_ZN12Disassembler4hookI25InterpreterMacroAssemblerEEPT_PKciS3_.exit44, %23
  call void @_ZN9Assembler3jccENS_9ConditionER5Labelb(ptr noundef nonnull align 8 dereferenceable(40) %20, i32 noundef 4, ptr noundef nonnull align 8 dereferenceable(33) %4, i1 noundef zeroext true) #8
  call void @_ZN13TemplateTable25putfield_or_static_helperEibNS_14RewriteControlE8RegisterS1_S1_(i32 noundef %0, i1 noundef zeroext %1, i32 noundef %2, i32 1, i32 3, i32 2)
  %24 = load ptr, ptr @_ZN13TemplateTable5_masmE, align 8
  %25 = load i8, ptr @PrintInterpreter, align 1
  %26 = trunc i8 %25 to i1
  br i1 %26, label %27, label %_ZN13TemplateTable16volatile_barrierEN9Assembler16Membar_mask_bitsE.exit

27:                                               ; preds = %_ZN12Disassembler4hookI25InterpreterMacroAssemblerEEPT_PKciS3_.exit45
  call void @_ZN12Disassembler5_hookEPKciP14MacroAssembler(ptr noundef nonnull @.str, i32 noundef 2654, ptr noundef %24) #8
  br label %_ZN13TemplateTable16volatile_barrierEN9Assembler16Membar_mask_bitsE.exit

_ZN13TemplateTable16volatile_barrierEN9Assembler16Membar_mask_bitsE.exit: ; preds = %_ZN12Disassembler4hookI25InterpreterMacroAssemblerEEPT_PKciS3_.exit45, %27
  call void @_ZN9Assembler6membarENS_16Membar_mask_bitsE(ptr noundef nonnull align 8 dereferenceable(40) %24, i32 noundef 10) #8
  %28 = load ptr, ptr @_ZN13TemplateTable5_masmE, align 8
  %29 = load i8, ptr @PrintInterpreter, align 1
  %30 = trunc i8 %29 to i1
  br i1 %30, label %31, label %_ZN12Disassembler4hookI25InterpreterMacroAssemblerEEPT_PKciS3_.exit46

31:                                               ; preds = %_ZN13TemplateTable16volatile_barrierEN9Assembler16Membar_mask_bitsE.exit
  call void @_ZN12Disassembler5_hookEPKciP14MacroAssembler(ptr noundef nonnull @.str, i32 noundef 3243, ptr noundef %28) #8
  br label %_ZN12Disassembler4hookI25InterpreterMacroAssemblerEEPT_PKciS3_.exit46

_ZN12Disassembler4hookI25InterpreterMacroAssemblerEEPT_PKciS3_.exit46: ; preds = %_ZN13TemplateTable16volatile_barrierEN9Assembler16Membar_mask_bitsE.exit, %31
  call void @_ZN9Assembler3jmpER5Labelb(ptr noundef nonnull align 8 dereferenceable(40) %28, ptr noundef nonnull align 8 dereferenceable(33) %5, i1 noundef zeroext true) #8
  %32 = load ptr, ptr @_ZN13TemplateTable5_masmE, align 8
  %33 = load i8, ptr @PrintInterpreter, align 1
  %34 = trunc i8 %33 to i1
  br i1 %34, label %35, label %_ZN12Disassembler4hookI25InterpreterMacroAssemblerEEPT_PKciS3_.exit47

35:                                               ; preds = %_ZN12Disassembler4hookI25InterpreterMacroAssemblerEEPT_PKciS3_.exit46
  call void @_ZN12Disassembler5_hookEPKciP14MacroAssembler(ptr noundef nonnull @.str, i32 noundef 3244, ptr noundef %32) #8
  br label %_ZN12Disassembler4hookI25InterpreterMacroAssemblerEEPT_PKciS3_.exit47

_ZN12Disassembler4hookI25InterpreterMacroAssemblerEEPT_PKciS3_.exit47: ; preds = %_ZN12Disassembler4hookI25InterpreterMacroAssemblerEEPT_PKciS3_.exit46, %35
  call void @_ZN17AbstractAssembler4bindER5Label(ptr noundef nonnull align 8 dereferenceable(24) %32, ptr noundef nonnull align 8 dereferenceable(33) %4) #8
  call void @_ZN13TemplateTable25putfield_or_static_helperEibNS_14RewriteControlE8RegisterS1_S1_(i32 noundef %0, i1 noundef zeroext %1, i32 noundef %2, i32 1, i32 3, i32 2)
  %36 = load ptr, ptr @_ZN13TemplateTable5_masmE, align 8
  %37 = load i8, ptr @PrintInterpreter, align 1
  %38 = trunc i8 %37 to i1
  br i1 %38, label %39, label %_ZN12Disassembler4hookI25InterpreterMacroAssemblerEEPT_PKciS3_.exit48

39:                                               ; preds = %_ZN12Disassembler4hookI25InterpreterMacroAssemblerEEPT_PKciS3_.exit47
  call void @_ZN12Disassembler5_hookEPKciP14MacroAssembler(ptr noundef nonnull @.str, i32 noundef 3248, ptr noundef %36) #8
  br label %_ZN12Disassembler4hookI25InterpreterMacroAssemblerEEPT_PKciS3_.exit48

_ZN12Disassembler4hookI25InterpreterMacroAssemblerEEPT_PKciS3_.exit48: ; preds = %_ZN12Disassembler4hookI25InterpreterMacroAssemblerEEPT_PKciS3_.exit47, %39
  call void @_ZN17AbstractAssembler4bindER5Label(ptr noundef nonnull align 8 dereferenceable(24) %36, ptr noundef nonnull align 8 dereferenceable(33) %5) #8
  ret void
}